target datalayout = "e-m:e-p270:32:32-p271:32:32-p272:64:64-i64:64-i128:128-f80:128-n8:16:32:64-S128"
target triple = "x86_64-pc-linux-gnu"

%struct.FFFILE = type { i64, ptr, ptr, ptr, ptr, i64, i64, ptr, ptr }

; Function Attrs: nounwind uwtable
define internal i64 @ffstring_read(ptr noundef %0, ptr noundef %1, i64 noundef %2) #0 {
  %4 = alloca ptr, align 8
  %5 = alloca ptr, align 8
  %6 = alloca i64, align 8
  %7 = alloca ptr, align 8
  %8 = alloca i64, align 8
  %9 = alloca ptr, align 8
  store ptr %0, ptr %4, align 8, !tbaa !24
  store ptr %1, ptr %5, align 8, !tbaa !4
  store i64 %2, ptr %6, align 8, !tbaa !26
  call void @llvm.lifetime.start.p0(i64 8, ptr %7) #9
  %10 = load ptr, ptr %4, align 8, !tbaa !24
  %11 = getelementptr inbounds nuw %struct.FFFILE, ptr %10, i32 0, i32 7
  %12 = load ptr, ptr %11, align 8, !tbaa !22
  store ptr %12, ptr %7, align 8, !tbaa !4
  call void @llvm.lifetime.start.p0(i64 8, ptr %8) #9
  %13 = load i64, ptr %6, align 8, !tbaa !26
  %14 = add i64 %13, 256
  store i64 %14, ptr %8, align 8, !tbaa !26
  call void @llvm.lifetime.start.p0(i64 8, ptr %9) #9
  %15 = load ptr, ptr %7, align 8, !tbaa !4
  %16 = load i64, ptr %8, align 8, !tbaa !26
  %17 = call ptr @memchr(ptr noundef %15, i32 noundef 0, i64 noundef %16) #10
  store ptr %17, ptr %9, align 8, !tbaa !4
  %18 = load ptr, ptr %9, align 8, !tbaa !4
  %19 = icmp ne ptr %18, null
  br i1 %19, label %20, label %26

20:                                               ; preds = %3
  %21 = load ptr, ptr %9, align 8, !tbaa !4
  %22 = load ptr, ptr %7, align 8, !tbaa !4
  %23 = ptrtoint ptr %21 to i64
  %24 = ptrtoint ptr %22 to i64
  %25 = sub i64 %23, %24
  store i64 %25, ptr %8, align 8, !tbaa !26
  br label %26

26:                                               ; preds = %20, %3
  %27 = load i64, ptr %8, align 8, !tbaa !26
  %28 = load i64, ptr %6, align 8, !tbaa !26
  %29 = icmp ult i64 %27, %28
  br i1 %29, label %30, label %32

30:                                               ; preds = %26
  %31 = load i64, ptr %8, align 8, !tbaa !26
  store i64 %31, ptr %6, align 8, !tbaa !26
  br label %32

32:                                               ; preds = %30, %26
  %33 = load ptr, ptr %5, align 8, !tbaa !4
  %34 = load ptr, ptr %7, align 8, !tbaa !4
  %35 = load i64, ptr %6, align 8, !tbaa !26
  call void @llvm.memcpy.p0.p0.i64(ptr align 1 %33, ptr align 1 %34, i64 %35, i1 false)
  %36 = load ptr, ptr %7, align 8, !tbaa !4
  %37 = load i64, ptr %6, align 8, !tbaa !26
  %38 = getelementptr inbounds nuw i8, ptr %36, i64 %37
  %39 = load ptr, ptr %4, align 8, !tbaa !24
  %40 = getelementptr inbounds nuw %struct.FFFILE, ptr %39, i32 0, i32 2
  store ptr %38, ptr %40, align 8, !tbaa !17
  %41 = load ptr, ptr %7, align 8, !tbaa !4
  %42 = load i64, ptr %8, align 8, !tbaa !26
  %43 = getelementptr inbounds nuw i8, ptr %41, i64 %42
  %44 = load ptr, ptr %4, align 8, !tbaa !24
  %45 = getelementptr inbounds nuw %struct.FFFILE, ptr %44, i32 0, i32 3
  store ptr %43, ptr %45, align 8, !tbaa !18
  %46 = load ptr, ptr %7, align 8, !tbaa !4
  %47 = load i64, ptr %8, align 8, !tbaa !26
  %48 = getelementptr inbounds nuw i8, ptr %46, i64 %47
  %49 = load ptr, ptr %4, align 8, !tbaa !24
  %50 = getelementptr inbounds nuw %struct.FFFILE, ptr %49, i32 0, i32 7
  store ptr %48, ptr %50, align 8, !tbaa !22
  %51 = load i64, ptr %6, align 8, !tbaa !26
  call void @llvm.lifetime.end.p0(i64 8, ptr %9) #9
  call void @llvm.lifetime.end.p0(i64 8, ptr %8) #9
  call void @llvm.lifetime.end.p0(i64 8, ptr %7) #9
  ret i64 %51
}