; Function Attrs: mustprogress nofree norecurse nounwind willreturn memory(readwrite, inaccessiblemem: none) uwtable
define internal i64 @ffstring_read(ptr noundef captures(none) initializes((16, 32)) %0, ptr noundef writeonly captures(none) %1, i64 noundef %2) #3 {
  %4 = getelementptr inbounds nuw i8, ptr %0, i64 56
  %5 = load ptr, ptr %4, align 8, !tbaa !12
  %6 = add i64 %2, 256
  %7 = tail call ptr @memchr(ptr noundef %5, i32 noundef 0, i64 noundef %6) #12
  %.not = icmp eq ptr %7, null
  %8 = ptrtoint ptr %7 to i64
  %9 = ptrtoint ptr %5 to i64
  %10 = sub i64 %8, %9
  %.022 = select i1 %.not, i64 %6, i64 %10
  %.0 = tail call i64 @llvm.umin.i64(i64 %.022, i64 %2)
  tail call void @llvm.memcpy.p0.p0.i64(ptr align 1 %1, ptr align 1 %5, i64 %.0, i1 false)
  %11 = getelementptr inbounds nuw i8, ptr %5, i64 %.0
  %12 = getelementptr inbounds nuw i8, ptr %0, i64 16
  store ptr %11, ptr %12, align 8, !tbaa !14
  %13 = getelementptr inbounds nuw i8, ptr %5, i64 %.022
  %14 = getelementptr inbounds nuw i8, ptr %0, i64 24
  store ptr %13, ptr %14, align 8, !tbaa !15
  store ptr %13, ptr %4, align 8, !tbaa !12
  ret i64 %.0
}